; Function Attrs: mustprogress uwtable
define void @_ZN10ImDrawData11AddDrawListEP10ImDrawList(ptr noundef nonnull align 8 captures(none) dereferenceable(64) %0, ptr noundef %1) local_unnamed_addr #12 align 2 {
  %.pr.i = load i32, ptr %1, align 8, !tbaa !73
  %3 = icmp sgt i32 %.pr.i, 0
  br i1 %3, label %.lr.ph.i, label %_ZN10ImDrawList17_PopUnusedDrawCmdEv.exit

.lr.ph.i:                                         ; preds = %2
  %4 = getelementptr inbounds nuw i8, ptr %1, i64 8
  %5 = load ptr, ptr %4, align 8, !tbaa !74
  br label %6

6:                                                ; preds = %15, %.lr.ph.i
  %7 = phi i32 [ %.pr.i, %.lr.ph.i ], [ %16, %15 ]
  %8 = zext nneg i32 %7 to i64
  %9 = getelementptr %struct.ImDrawCmd, ptr %5, i64 %8
  %10 = getelementptr i8, ptr %9, i64 -32
  %11 = load i32, ptr %10, align 8, !tbaa !75
  %.not.i = icmp eq i32 %11, 0
  br i1 %.not.i, label %12, label %_ZN10ImDrawList17_PopUnusedDrawCmdEv.exit

12:                                               ; preds = %6
  %13 = getelementptr i8, ptr %9, i64 -24
  %14 = load ptr, ptr %13, align 8, !tbaa !77
  %.not4.i = icmp eq ptr %14, null
  br i1 %.not4.i, label %15, label %_ZN10ImDrawList17_PopUnusedDrawCmdEv.exit

15:                                               ; preds = %12
  %16 = add nsw i32 %7, -1
  store i32 %16, ptr %1, align 8, !tbaa !53
  %17 = icmp sgt i32 %7, 1
  br i1 %17, label %6, label %_ZN10ImDrawList17_PopUnusedDrawCmdEv.exit

_ZN10ImDrawList17_PopUnusedDrawCmdEv.exit:        ; preds = %6, %12, %15, %2
  %18 = getelementptr inbounds nuw i8, ptr %0, i64 16
  tail call void @_ZN5ImGui23AddDrawListToDrawDataExEP10ImDrawDataP8ImVectorIP10ImDrawListES4_(ptr noundef nonnull %0, ptr noundef nonnull %18, ptr noundef nonnull %1)
  ret void
}